target datalayout = "e-m:e-p270:32:32-p271:32:32-p272:64:64-i64:64-i128:128-f80:128-n8:16:32:64-S128"
target triple = "x86_64-unknown-linux-gnu"

%struct.QIOChannelTLS = type { %struct.QIOChannel, ptr, ptr, i32, i32 }
%struct.QIOChannel = type { %struct.Object, i32, ptr, ptr, ptr, ptr, ptr, i8 }
%struct.Object = type { ptr, ptr, ptr, i32, ptr }
%struct.iovec = type { ptr, i64 }

@.str = private unnamed_addr constant [16 x i8] c"qio-channel-tls\00", align 1
@.str.1 = private unnamed_addr constant [103 x i8] c"/home/dtcxzyw/WorkSpace/Projects/compilers/llvm-opt-benchmark/bench/qemu/qemu/include/io/channel-tls.h\00", align 1
@__func__.QIO_CHANNEL_TLS = private unnamed_addr constant [16 x i8] c"QIO_CHANNEL_TLS\00", align 1
@.str.20 = private unnamed_addr constant [25 x i8] c"../qemu/io/channel-tls.c\00", align 1
@__func__.qio_channel_tls_readv = private unnamed_addr constant [22 x i8] c"qio_channel_tls_readv\00", align 1
@.str.22 = private unnamed_addr constant [29 x i8] c"Cannot read from TLS channel\00", align 1

; Function Attrs: nounwind sspstrong uwtable
define internal ptr @QIO_CHANNEL_TLS(ptr noundef %obj) #0 {
entry:
  %obj.addr = alloca ptr, align 8
  store ptr %obj, ptr %obj.addr, align 8
  %0 = load ptr, ptr %obj.addr, align 8
  %call = call ptr @object_dynamic_cast_assert(ptr noundef %0, ptr noundef @.str, ptr noundef @.str.1, i32 noundef 30, ptr noundef @__func__.QIO_CHANNEL_TLS)
  ret ptr %call
}

; Function Attrs: nounwind sspstrong uwtable
define internal i64 @qio_channel_tls_readv(ptr noundef %ioc, ptr noundef %iov, i64 noundef %niov, ptr noundef %fds, ptr noundef %nfds, i32 noundef %flags, ptr noundef %errp) #0 {
entry:
  %retval = alloca i64, align 8
  %ioc.addr = alloca ptr, align 8
  %iov.addr = alloca ptr, align 8
  %niov.addr = alloca i64, align 8
  %fds.addr = alloca ptr, align 8
  %nfds.addr = alloca ptr, align 8
  %flags.addr = alloca i32, align 4
  %errp.addr = alloca ptr, align 8
  %tioc = alloca ptr, align 8
  %i = alloca i64, align 8
  %got = alloca i64, align 8
  %ret = alloca i64, align 8
  %_val = alloca i32, align 4
  %tmp = alloca i32, align 4
  store ptr %ioc, ptr %ioc.addr, align 8
  store ptr %iov, ptr %iov.addr, align 8
  store i64 %niov, ptr %niov.addr, align 8
  store ptr %fds, ptr %fds.addr, align 8
  store ptr %nfds, ptr %nfds.addr, align 8
  store i32 %flags, ptr %flags.addr, align 4
  store ptr %errp, ptr %errp.addr, align 8
  %0 = load ptr, ptr %ioc.addr, align 8
  %call = call ptr @QIO_CHANNEL_TLS(ptr noundef %0)
  store ptr %call, ptr %tioc, align 8
  store i64 0, ptr %got, align 8
  store i64 0, ptr %i, align 8
  br label %for.cond

for.cond:                                         ; preds = %for.inc, %entry
  %1 = load i64, ptr %i, align 8
  %2 = load i64, ptr %niov.addr, align 8
  %cmp = icmp ult i64 %1, %2
  br i1 %cmp, label %for.body, label %for.end

for.body:                                         ; preds = %for.cond
  %3 = load ptr, ptr %tioc, align 8
  %session = getelementptr inbounds %struct.QIOChannelTLS, ptr %3, i32 0, i32 2
  %4 = load ptr, ptr %session, align 8
  %5 = load ptr, ptr %iov.addr, align 8
  %6 = load i64, ptr %i, align 8
  %arrayidx = getelementptr %struct.iovec, ptr %5, i64 %6
  %iov_base = getelementptr inbounds %struct.iovec, ptr %arrayidx, i32 0, i32 0
  %7 = load ptr, ptr %iov_base, align 8
  %8 = load ptr, ptr %iov.addr, align 8
  %9 = load i64, ptr %i, align 8
  %arrayidx1 = getelementptr %struct.iovec, ptr %8, i64 %9
  %iov_len = getelementptr inbounds %struct.iovec, ptr %arrayidx1, i32 0, i32 1
  %10 = load i64, ptr %iov_len, align 8
  %call2 = call i64 @qcrypto_tls_session_read(ptr noundef %4, ptr noundef %7, i64 noundef %10)
  store i64 %call2, ptr %ret, align 8
  %11 = load i64, ptr %ret, align 8
  %cmp3 = icmp slt i64 %11, 0
  br i1 %cmp3, label %if.then, label %if.end15

if.then:                                          ; preds = %for.body
  %call4 = call ptr @__errno_location() #6
  %12 = load i32, ptr %call4, align 4
  %cmp5 = icmp eq i32 %12, 11
  br i1 %cmp5, label %if.then6, label %if.else8

if.then6:                                         ; preds = %if.then
  %13 = load i64, ptr %got, align 8
  %tobool = icmp ne i64 %13, 0
  br i1 %tobool, label %if.then7, label %if.else

if.then7:                                         ; preds = %if.then6
  %14 = load i64, ptr %got, align 8
  store i64 %14, ptr %retval, align 8
  br label %return

if.else:                                          ; preds = %if.then6
  store i64 -2, ptr %retval, align 8
  br label %return

if.else8:                                         ; preds = %if.then
  %call9 = call ptr @__errno_location() #6
  %15 = load i32, ptr %call9, align 4
  %cmp10 = icmp eq i32 %15, 103
  br i1 %cmp10, label %land.lhs.true, label %if.end

land.lhs.true:                                    ; preds = %if.else8
  br label %while.cond

while.cond:                                       ; preds = %do.end, %land.lhs.true
  br i1 false, label %while.body, label %while.end

while.body:                                       ; preds = %while.cond
  br label %do.body

do.body:                                          ; preds = %while.body
  call void @g_assertion_message_expr(ptr noundef null, ptr noundef @.str.20, i32 noundef 287, ptr noundef @__func__.qio_channel_tls_readv, ptr noundef null) #9
  unreachable

do.end:                                           ; No predecessors!
  br label %while.cond

while.end:                                        ; preds = %while.cond
  %16 = load ptr, ptr %tioc, align 8
  %shutdown = getelementptr inbounds %struct.QIOChannelTLS, ptr %16, i32 0, i32 3
  %17 = load atomic i32, ptr %shutdown acquire, align 8
  store i32 %17, ptr %_val, align 4
  %18 = load i32, ptr %_val, align 4
  store i32 %18, ptr %tmp, align 4
  %19 = load i32, ptr %tmp, align 4
  %and = and i32 %19, 1
  %tobool11 = icmp ne i32 %and, 0
  br i1 %tobool11, label %if.then12, label %if.end

if.then12:                                        ; preds = %while.end
  store i64 0, ptr %retval, align 8
  br label %return

if.end:                                           ; preds = %while.end, %if.else8
  br label %if.end13

if.end13:                                         ; preds = %if.end
  %20 = load ptr, ptr %errp.addr, align 8
  %call14 = call ptr @__errno_location() #6
  %21 = load i32, ptr %call14, align 4
  call void (ptr, ptr, i32, ptr, i32, ptr, ...) @error_setg_errno_internal(ptr noundef %20, ptr noundef @.str.20, i32 noundef 293, ptr noundef @__func__.qio_channel_tls_readv, i32 noundef %21, ptr noundef @.str.22)
  store i64 -1, ptr %retval, align 8
  br label %return

if.end15:                                         ; preds = %for.body
  %22 = load i64, ptr %ret, align 8
  %23 = load i64, ptr %got, align 8
  %add = add i64 %23, %22
  store i64 %add, ptr %got, align 8
  %24 = load i64, ptr %ret, align 8
  %25 = load ptr, ptr %iov.addr, align 8
  %26 = load i64, ptr %i, align 8
  %arrayidx16 = getelementptr %struct.iovec, ptr %25, i64 %26
  %iov_len17 = getelementptr inbounds %struct.iovec, ptr %arrayidx16, i32 0, i32 1
  %27 = load i64, ptr %iov_len17, align 8
  %cmp18 = icmp ult i64 %24, %27
  br i1 %cmp18, label %if.then19, label %if.end20

if.then19:                                        ; preds = %if.end15
  br label %for.end

if.end20:                                         ; preds = %if.end15
  br label %for.inc

for.inc:                                          ; preds = %if.end20
  %28 = load i64, ptr %i, align 8
  %inc = add i64 %28, 1
  store i64 %inc, ptr %i, align 8
  br label %for.cond, !llvm.loop !7

for.end:                                          ; preds = %if.then19, %for.cond
  %29 = load i64, ptr %got, align 8
  store i64 %29, ptr %retval, align 8
  br label %return

return:                                           ; preds = %for.end, %if.end13, %if.then12, %if.else, %if.then7
  %30 = load i64, ptr %retval, align 8
  ret i64 %30
}