; Function Attrs: nounwind sspstrong uwtable
define internal i64 @qio_channel_tls_readv(ptr noundef %ioc, ptr noundef readonly captures(none) %iov, i64 noundef %niov, ptr readnone captures(none) %fds, ptr readnone captures(none) %nfds, i32 %flags, ptr noundef %errp) #0 {
entry:
  %call.i = tail call ptr @object_dynamic_cast_assert(ptr noundef %ioc, ptr noundef nonnull @.str, ptr noundef nonnull @.str.1, i32 noundef 30, ptr noundef nonnull @__func__.QIO_CHANNEL_TLS) #8
  %cmp14.not = icmp eq i64 %niov, 0
  br i1 %cmp14.not, label %return, label %for.body.lr.ph

for.body.lr.ph:                                   ; preds = %entry
  %session = getelementptr inbounds nuw i8, ptr %call.i, i64 104
  br label %for.body

for.body:                                         ; preds = %if.end15, %for.body.lr.ph
  %i.016 = phi i64 [ 0, %for.body.lr.ph ], [ %inc, %if.end15 ]
  %got.015 = phi i64 [ 0, %for.body.lr.ph ], [ %add, %if.end15 ]
  %0 = load ptr, ptr %session, align 8
  %arrayidx = getelementptr %struct.iovec, ptr %iov, i64 %i.016
  %1 = load ptr, ptr %arrayidx, align 8
  %iov_len = getelementptr inbounds nuw i8, ptr %arrayidx, i64 8
  %2 = load i64, ptr %iov_len, align 8
  %call2 = tail call i64 @qcrypto_tls_session_read(ptr noundef %0, ptr noundef %1, i64 noundef %2) #8
  %cmp3 = icmp slt i64 %call2, 0
  br i1 %cmp3, label %if.then, label %if.end15

if.then:                                          ; preds = %for.body
  %call4 = tail call ptr @__errno_location() #9
  %3 = load i32, ptr %call4, align 4
  switch i32 %3, label %if.end13 [
    i32 11, label %if.then6
    i32 103, label %while.end
  ]

if.then6:                                         ; preds = %if.then
  %tobool.not = icmp eq i64 %got.015, 0
  %.got.0 = select i1 %tobool.not, i64 -2, i64 %got.015
  br label %return

while.end:                                        ; preds = %if.then
  %shutdown = getelementptr inbounds nuw i8, ptr %call.i, i64 112
  %4 = load atomic i32, ptr %shutdown acquire, align 8
  %and = and i32 %4, 1
  %tobool11.not = icmp eq i32 %and, 0
  br i1 %tobool11.not, label %while.end.if.end13_crit_edge, label %return

while.end.if.end13_crit_edge:                     ; preds = %while.end
  %.pre = load i32, ptr %call4, align 4
  br label %if.end13

if.end13:                                         ; preds = %while.end.if.end13_crit_edge, %if.then
  %5 = phi i32 [ %.pre, %while.end.if.end13_crit_edge ], [ %3, %if.then ]
  tail call void (ptr, ptr, i32, ptr, i32, ptr, ...) @error_setg_errno_internal(ptr noundef %errp, ptr noundef nonnull @.str.20, i32 noundef 293, ptr noundef nonnull @__func__.qio_channel_tls_readv, i32 noundef %5, ptr noundef nonnull @.str.22) #8
  br label %return

if.end15:                                         ; preds = %for.body
  %add = add i64 %call2, %got.015
  %6 = load i64, ptr %iov_len, align 8
  %cmp18 = icmp ult i64 %call2, %6
  %inc = add nuw i64 %i.016, 1
  %exitcond.not = icmp eq i64 %inc, %niov
  %or.cond = select i1 %cmp18, i1 true, i1 %exitcond.not
  br i1 %or.cond, label %return, label %for.body, !llvm.loop !7

return:                                           ; preds = %if.end15, %entry, %while.end, %if.then6, %if.end13
  %retval.0 = phi i64 [ -1, %if.end13 ], [ %.got.0, %if.then6 ], [ 0, %while.end ], [ 0, %entry ], [ %add, %if.end15 ]
  ret i64 %retval.0
}